; Function Attrs: mustprogress uwtable
define hidden noundef zeroext i1 @_ZNK3smt18quantifier_manager13can_propagateEv(ptr noundef nonnull readonly align 8 captures(none) dereferenceable(13) %0) local_unnamed_addr #4 align 2 {
  %2 = load ptr, ptr %0, align 8, !tbaa !82
  %3 = getelementptr inbounds nuw i8, ptr %2, i64 1024
  %4 = load ptr, ptr %3, align 8, !tbaa !696
  %5 = icmp eq ptr %4, null
  br i1 %5, label %_ZNK3smt8qi_queue8has_workEv.exit.thread.i, label %_ZNK3smt8qi_queue8has_workEv.exit.i

_ZNK3smt8qi_queue8has_workEv.exit.i:              ; preds = %1
  %6 = getelementptr inbounds i8, ptr %4, i64 -4
  %7 = load i32, ptr %6, align 4, !tbaa !61
  %.not.i = icmp eq i32 %7, 0
  br i1 %.not.i, label %_ZNK3smt8qi_queue8has_workEv.exit.thread.i, label %_ZN3smt18quantifier_manager3imp13can_propagateEv.exit

_ZNK3smt8qi_queue8has_workEv.exit.thread.i:       ; preds = %_ZNK3smt8qi_queue8has_workEv.exit.i, %1
  %8 = getelementptr inbounds nuw i8, ptr %2, i64 1160
  %9 = load ptr, ptr %8, align 8, !tbaa !85
  %10 = load ptr, ptr %9, align 8, !tbaa !56
  %11 = getelementptr inbounds nuw i8, ptr %10, i64 104
  %12 = load ptr, ptr %11, align 8
  %13 = tail call noundef zeroext i1 %12(ptr noundef nonnull align 8 dereferenceable(8) %9)
  br label %_ZN3smt18quantifier_manager3imp13can_propagateEv.exit

_ZN3smt18quantifier_manager3imp13can_propagateEv.exit: ; preds = %_ZNK3smt8qi_queue8has_workEv.exit.i, %_ZNK3smt8qi_queue8has_workEv.exit.thread.i
  %14 = phi i1 [ true, %_ZNK3smt8qi_queue8has_workEv.exit.i ], [ %13, %_ZNK3smt8qi_queue8has_workEv.exit.thread.i ]
  ret i1 %14
}